; Function Attrs: nounwind uwtable
define internal noundef ptr @Xxo_demo(ptr readnone captures(none) %0, ptr noundef %1) #0 {
  %3 = alloca ptr, align 8
  call void @llvm.lifetime.start.p0(i64 8, ptr nonnull %3) #4
  store ptr null, ptr %3, align 8, !tbaa !8
  %4 = call i32 (ptr, ptr, ...) @PyArg_ParseTuple(ptr noundef %1, ptr noundef nonnull @.str.26, ptr noundef nonnull %3) #4
  %.not = icmp eq i32 %4, 0
  br i1 %.not, label %_Py_NewRef.exit, label %5

5:                                                ; preds = %2
  %6 = load ptr, ptr %3, align 8, !tbaa !8
  %.not3 = icmp eq ptr %6, null
  br i1 %.not3, label %15, label %7

7:                                                ; preds = %5
  %8 = getelementptr i8, ptr %6, i64 8
  %.val = load ptr, ptr %8, align 8, !tbaa !18
  %9 = call i64 @PyType_GetFlags(ptr noundef %.val) #4
  %10 = and i64 %9, 268435456
  %.not4 = icmp eq i64 %10, 0
  br i1 %.not4, label %15, label %11

11:                                               ; preds = %7
  %12 = load ptr, ptr %3, align 8, !tbaa !8
  %13 = load i32, ptr %12, align 8, !tbaa !3
  %14 = icmp slt i32 %13, 0
  br i1 %14, label %_Py_NewRef.exit, label %_Py_NewRef.exit.sink.split

15:                                               ; preds = %7, %5
  %16 = load i32, ptr @_Py_NoneStruct, align 8, !tbaa !3
  %17 = icmp slt i32 %16, 0
  br i1 %17, label %_Py_NewRef.exit, label %_Py_NewRef.exit.sink.split

_Py_NewRef.exit.sink.split:                       ; preds = %15, %11
  %.sink6 = phi i32 [ %13, %11 ], [ %16, %15 ]
  %_Py_NoneStruct.sink = phi ptr [ %12, %11 ], [ @_Py_NoneStruct, %15 ]
  %18 = add nuw i32 %.sink6, 1
  store i32 %18, ptr %_Py_NoneStruct.sink, align 8, !tbaa !3
  br label %_Py_NewRef.exit

_Py_NewRef.exit:                                  ; preds = %_Py_NewRef.exit.sink.split, %15, %11, %2
  %.0 = phi ptr [ null, %2 ], [ %12, %11 ], [ @_Py_NoneStruct, %15 ], [ %_Py_NoneStruct.sink, %_Py_NewRef.exit.sink.split ]
  call void @llvm.lifetime.end.p0(i64 8, ptr nonnull %3) #4
  ret ptr %.0
}